(inn.nn_with_dropoutnet
RecommendNet
p1
(dp2
S'inf_signal'
p3
S'inference'
p4
sS'item_feature_dim'
p5
I200
sS'k'
I6
sS'latent_dim'
p6
I200
sS'do_batch_norm'
p7
I01
sS'default_lr'
p8
F0.001
sS'train_signal'
p9
S'training'
p10
sS'out_dim'
p11
I200
sS'user_feature_dim'
p12
I200
sS'multilayer_dims'
p13
(lp14
I400
asb.