(dp1
S'u_cont_path'
p2
S'./saved_model/dropoutnet_opla_vTest/matrix/u_cont.bin'
p3
sS'n_user'
p4
I628
sS'u_pref_path'
p5
S'./saved_model/dropoutnet_opla_vTest/matrix/u_pref.bin'
p6
sS'tf_model_params'
p7
(dp8
S'np_u_cont'
p9
NsS'item_feature_dim'
p10
I200
sS'do_batch_norm'
p11
I01
sS'out_dim'
p12
I200
sS'np_v_cont'
p13
NsS'multilayer_dims'
p14
(lp15
I400
asS'np_v_pref_scaled'
p16
NsS'k'
I3
sS'latent_dim'
p17
I200
sS'np_u_pref_scaled'
p18
NsS'default_lr'
p19
F0.0050000000000000001
sS'user_feature_dim'
p20
I200
ssS'tf_model_path'
p21
S'./saved_model/dropoutnet_opla_vTest/tf_model/dropoutnet.ckpt'
p22
sS'v_cont_path'
p23
S'./saved_model/dropoutnet_opla_vTest/matrix/v_cont.bin'
p24
sS'v_pref_path'
p25
S'./saved_model/dropoutnet_opla_vTest/matrix/v_pref.bin'
p26
sS'n_item'
p27
I13
sS'info_path'
p28
S'./saved_model/dropoutnet_opla_vTest/info.txt'
p29
s.