(dp1
S'u_pref_path'
p2
S'./saved_model/dropoutnet_v1/matrix/u_pref.bin'
p3
sS'tf_model_params'
p4
(dp5
S'np_v_pref_scaled'
p6
NsS'np_u_cont'
p7
NsS'item_feature_dim'
p8
I18
sS'k'
I50
sS'latent_dim'
p9
I200
sS'do_batch_norm'
p10
I01
sS'np_u_pref_scaled'
p11
NsS'default_lr'
p12
F0.0050000000000000001
sS'out_dim'
p13
I200
sS'np_v_cont'
p14
NsS'user_feature_dim'
p15
I30
sS'multilayer_dims'
p16
(lp17
I400
assS'tf_model_path'
p18
S'./saved_model/dropoutnet_v1/tf_model/dropoutnet.ckpt'
p19
sS'v_cont_path'
p20
S'./saved_model/dropoutnet_v1/matrix/v_cont.bin'
p21
sS'info_path'
p22
S'./saved_model/dropoutnet_v1/info.txt'
p23
sS'u_cont_path'
p24
S'./saved_model/dropoutnet_v1/matrix/u_cont.bin'
p25
sS'n_user'
p26
I6041
sS'v_pref_path'
p27
S'./saved_model/dropoutnet_v1/matrix/v_pref.bin'
p28
sS'n_item'
p29
I3953
s.